target datalayout = "e-m:e-p270:32:32-p271:32:32-p272:64:64-i64:64-i128:128-f80:128-n8:16:32:64-S128"
target triple = "x86_64-pc-linux-gnu"

%struct.lua_State = type { i8, i8, i8, i8, i8, i8, i8, ptr, ptr, ptr, ptr, ptr, ptr, ptr, ptr, i32, i32, i16, i16, i32, ptr, ptr, ptr, ptr, ptr }
%struct.lua_TValue = type { %union.Value, [1 x i32], i32 }
%union.Value = type { ptr }
%struct.LuaTable = type { i8, i8, i8, i8, i8, i8, i8, i8, i32, %union.anon.2, ptr, ptr, ptr, ptr }
%union.anon.2 = type { i32 }

@.str.26 = private unnamed_addr constant [18 x i8] c"size out of range\00", align 1

; Function Attrs: mustprogress uwtable
define internal noundef i32 @_ZL7tcreateP9lua_State(ptr noundef %0) #0 {
  %2 = alloca ptr, align 8
  %3 = alloca i32, align 4
  %4 = alloca ptr, align 8
  %5 = alloca ptr, align 8
  %6 = alloca i32, align 4
  %7 = alloca ptr, align 8
  %8 = alloca ptr, align 8
  %9 = alloca ptr, align 8
  store ptr %0, ptr %2, align 8, !tbaa !4
  call void @llvm.lifetime.start.p0(i64 4, ptr %3) #7
  %10 = load ptr, ptr %2, align 8, !tbaa !4
  %11 = call noundef i32 @_Z17luaL_checkintegerP9lua_Statei(ptr noundef %10, i32 noundef 1)
  store i32 %11, ptr %3, align 4, !tbaa !23
  %12 = load i32, ptr %3, align 4, !tbaa !23
  %13 = icmp slt i32 %12, 0
  br i1 %13, label %14, label %16

14:                                               ; preds = %1
  %15 = load ptr, ptr %2, align 8, !tbaa !4
  call void @_Z14luaL_argerrorLP9lua_StateiPKc(ptr noundef %15, i32 noundef 1, ptr noundef @.str.26) #8
  unreachable

16:                                               ; preds = %1
  %17 = load ptr, ptr %2, align 8, !tbaa !4
  %18 = call noundef i32 @_Z8lua_typeP9lua_Statei(ptr noundef %17, i32 noundef 2)
  %19 = icmp sle i32 %18, 0
  br i1 %19, label %53, label %20

20:                                               ; preds = %16
  %21 = load ptr, ptr %2, align 8, !tbaa !4
  %22 = load i32, ptr %3, align 4, !tbaa !23
  call void @_Z15lua_createtableP9lua_Stateii(ptr noundef %21, i32 noundef %22, i32 noundef 0)
  call void @llvm.lifetime.start.p0(i64 8, ptr %4) #7
  %23 = load ptr, ptr %2, align 8, !tbaa !4
  %24 = getelementptr inbounds nuw %struct.lua_State, ptr %23, i32 0, i32 7
  %25 = load ptr, ptr %24, align 8, !tbaa !29
  %26 = getelementptr inbounds %struct.lua_TValue, ptr %25, i64 -1
  %27 = getelementptr inbounds nuw %struct.lua_TValue, ptr %26, i32 0, i32 0
  %28 = load ptr, ptr %27, align 8, !tbaa !21
  store ptr %28, ptr %4, align 8, !tbaa !22
  call void @llvm.lifetime.start.p0(i64 8, ptr %5) #7
  %29 = load ptr, ptr %2, align 8, !tbaa !4
  %30 = getelementptr inbounds nuw %struct.lua_State, ptr %29, i32 0, i32 8
  %31 = load ptr, ptr %30, align 8, !tbaa !9
  %32 = getelementptr inbounds %struct.lua_TValue, ptr %31, i64 1
  store ptr %32, ptr %5, align 8, !tbaa !28
  call void @llvm.lifetime.start.p0(i64 4, ptr %6) #7
  store i32 0, ptr %6, align 4, !tbaa !23
  br label %33

33:                                               ; preds = %49, %20
  %34 = load i32, ptr %6, align 4, !tbaa !23
  %35 = load i32, ptr %3, align 4, !tbaa !23
  %36 = icmp slt i32 %34, %35
  br i1 %36, label %38, label %37

37:                                               ; preds = %33
  call void @llvm.lifetime.end.p0(i64 4, ptr %6) #7
  br label %52

38:                                               ; preds = %33
  call void @llvm.lifetime.start.p0(i64 8, ptr %7) #7
  %39 = load ptr, ptr %4, align 8, !tbaa !22
  %40 = getelementptr inbounds nuw %struct.LuaTable, ptr %39, i32 0, i32 11
  %41 = load ptr, ptr %40, align 8, !tbaa !27
  %42 = load i32, ptr %6, align 4, !tbaa !23
  %43 = sext i32 %42 to i64
  %44 = getelementptr inbounds %struct.lua_TValue, ptr %41, i64 %43
  store ptr %44, ptr %7, align 8, !tbaa !28
  call void @llvm.lifetime.start.p0(i64 8, ptr %8) #7
  %45 = load ptr, ptr %5, align 8, !tbaa !28
  store ptr %45, ptr %8, align 8, !tbaa !28
  call void @llvm.lifetime.start.p0(i64 8, ptr %9) #7
  %46 = load ptr, ptr %7, align 8, !tbaa !28
  store ptr %46, ptr %9, align 8, !tbaa !28
  %47 = load ptr, ptr %8, align 8, !tbaa !28
  %48 = load ptr, ptr %9, align 8, !tbaa !28
  call void @llvm.memcpy.p0.p0.i64(ptr align 8 %48, ptr align 8 %47, i64 16, i1 false), !tbaa.struct !30
  call void @llvm.lifetime.end.p0(i64 8, ptr %9) #7
  call void @llvm.lifetime.end.p0(i64 8, ptr %8) #7
  call void @llvm.lifetime.end.p0(i64 8, ptr %7) #7
  br label %49

49:                                               ; preds = %38
  %50 = load i32, ptr %6, align 4, !tbaa !23
  %51 = add nsw i32 %50, 1
  store i32 %51, ptr %6, align 4, !tbaa !23
  br label %33, !llvm.loop !56

52:                                               ; preds = %37
  call void @llvm.lifetime.end.p0(i64 8, ptr %5) #7
  call void @llvm.lifetime.end.p0(i64 8, ptr %4) #7
  br label %56

53:                                               ; preds = %16
  %54 = load ptr, ptr %2, align 8, !tbaa !4
  %55 = load i32, ptr %3, align 4, !tbaa !23
  call void @_Z15lua_createtableP9lua_Stateii(ptr noundef %54, i32 noundef %55, i32 noundef 0)
  br label %56

56:                                               ; preds = %53, %52
  call void @llvm.lifetime.end.p0(i64 4, ptr %3) #7
  ret i32 1
}